
Allocating common symbols
Common symbol       size              file

test_ptr            0x4               memtest.o
lls_start           0x4               memtest.o
t2                  0x4               memtest.o
r                   0x4               random.o
z                   0x4               random.o
clear_display       0x4               trace.o
t1                  0x4               memtest.o
get_attribute       0x4               trace.o
temp_t2             0x4               memtest.o
temp_t1             0x4               memtest.o
gotoxy              0x4               trace.o
a                   0x4               random.o
write_string        0x4               trace.o
m                   0x4               random.o
q                   0x4               random.o
set_attribute       0x4               trace.o

Memory Configuration

Name             Origin             Length             Attributes
*default*        0x0000000000000000 0xffffffffffffffff

Linker script and memory map

LOAD boottable.o
LOAD trace.o
LOAD i386.o
LOAD i8259.o
LOAD exceptions.o
LOAD i8253.o
LOAD init.o
LOAD stdlib.o
LOAD mem.o
LOAD keyboard.o
LOAD memtest.o
LOAD floppy.o
LOAD floppytest.o
LOAD cmos.o
LOAD dma.o
LOAD tty.o
LOAD sys.o
LOAD process.o
LOAD loader.o
LOAD random.o
LOAD comms.o
                0x0000000000001000                _link_base = 0x1000

.text           0x0000000000001000     0x7471
                0x0000000000001000        0x1 BYTE 0xe8
                0x0000000000001001        0x4 LONG 0x1c37 _main_offset
                0x0000000000001005                _main_call = .
                0x0000000000001008                . = ALIGN (0x4)
 *fill*         0x0000000000001005 0xa00000003 00
                0x0000000000001008        0x4 LONG 0x1000 _link_base
                0x000000000000100c        0x4 LONG 0xdda9 _heap_base
                0x0000000000001010                . = ALIGN (0x4)
 *(.text)
 .text          0x0000000000001010      0x303 boottable.o
                0x000000000000129c                bt_read_smap_entry
                0x0000000000001010                sort_smap_entries
                0x000000000000126f                bt_entry
                0x000000000000119c                bt_initialize
 *fill*         0x0000000000001313 0x30300000001 00
 .text          0x0000000000001314      0x8a0 trace.o
                0x0000000000001ad2                __gotoxy
                0x0000000000001a9a                __set_attribute
                0x0000000000001ac8                trace_get_offset
                0x0000000000001ab9                __get_attribute
                0x0000000000001b33                trace_initialize
                0x0000000000001a12                __clear_display
                0x000000000000169b                printk
                0x0000000000001436                int2string
                0x0000000000001314                __write_string
 .text          0x0000000000001bb4      0x3f7 i386.o
                0x0000000000001c02                i386_display_idt_entry
                0x0000000000001e50                i386_set_cpu_state
                0x0000000000001d47                i386_release_GDT_entry
                0x0000000000001bb4                load_gdtr
                0x0000000000001bc1                load_idtr
                0x0000000000001bce                load_segment_selectors
                0x0000000000001d02                i386_allocate_GDT_entry
                0x0000000000001bee                i386_align
                0x0000000000001bda                i386_set_page_directory
                0x0000000000001ea7                i386_initialize_descriptor_tables
                0x0000000000001c4a                i386_initialize_idt_entry
                0x0000000000001e9d                i386_gdt_offset
                0x0000000000001d65                i386_initialize_tss
 *fill*         0x0000000000001fab 0x3f700000001 00
 .text          0x0000000000001fac      0x7a4 i8259.o
                0x0000000000002712                i8259_initialize
                0x0000000000001fac                rdtsc
                0x0000000000001fc2                i8259_installed
                0x00000000000021ed                i8259_remove_interrupt_handler
                0x0000000000002348                field_interrupt
                0x0000000000002337                i8259_start
                0x0000000000002537                initialize_jump_table
                0x000000000000268b                initialize_8259
                0x0000000000002029                i8259_install_interrupt_handler
 .text          0x0000000000002750      0x34b exceptions.o
                0x0000000000002a53                exceptions_initialize
                0x0000000000002750                exception_handler
 *fill*         0x0000000000002a9b 0x34b00000001 00
 .text          0x0000000000002a9c      0x19e i8253.o
                0x0000000000002bb3                timer_handler
                0x0000000000002bc3                initialize_8253
                0x0000000000002b22                timer_expired
                0x0000000000002bf3                timer_initialize
                0x0000000000002a9c                timer_get_ticks
                0x0000000000002aa6                timer_set
 *fill*         0x0000000000002c3a 0x19e00000002 00
 .text          0x0000000000002c3c       0x65 init.o
                0x0000000000002c3c                main
 *fill*         0x0000000000002ca1 0x6500000003 00
 .text          0x0000000000002ca4       0x28 stdlib.o
                0x0000000000002ca4                abs
 .text          0x0000000000002ccc      0xbf0 mem.o
                0x00000000000033ef                mem_alloc
                0x0000000000003221                merge
                0x00000000000034a2                mem_free_page
                0x0000000000002db9                mem_copy_kernel_page_directory
                0x0000000000002d59                mem_switch_to_kernel_directory
                0x000000000000351a                mem_initialize
                0x00000000000034f9                mem_free
                0x0000000000002d7c                mem_largest_available
                0x0000000000002ccc                print_block
                0x0000000000002d72                mem_available
                0x00000000000034b7                mem_free_dma
                0x000000000000341a                mem_allocate_dma
                0x0000000000002dd3                get_align
                0x0000000000002ea1                allocate
                0x00000000000033d0                mem_allocate_page
                0x0000000000002cf8                print_blocks
                0x00000000000032d8                free
 .text          0x00000000000038bc      0x4c8 keyboard.o
                0x000000000000399d                keyboard_handler
                0x0000000000003945                keyboard_wait
                0x0000000000003931                keyboard_available
                0x00000000000038bc                keyboard_read
                0x0000000000003cdd                keyboard_initialize
                0x0000000000003969                keyboard_set_LEDs
 .text          0x0000000000003d84      0xa46 memtest.o
                0x0000000000003e29                mem_test
                0x0000000000003dde                insert_T1
                0x0000000000003d84                insert_T2
                0x0000000000003e8c                test_key
 *fill*         0x00000000000047ca 0xa4600000002 00
 .text          0x00000000000047cc     0x1151 floppy.o
                0x000000000000496c                get_results
                0x0000000000004a80                cycle_media
                0x00000000000055d3                floppy_initialize
                0x00000000000050be                floppy_read
                0x0000000000004884                put_byte
                0x0000000000004a1d                handler_floppy
                0x00000000000052c6                floppy_write
                0x0000000000004b27                do_request
                0x0000000000004921                wait_for_interrupt
                0x0000000000004a2e                error
                0x00000000000048f4                stop_motor
                0x00000000000047cc                show_dp
                0x00000000000054ce                read_version
 *fill*         0x000000000000591d 0x115100000003 00
 .text          0x0000000000005920      0x247 floppytest.o
                0x0000000000005920                floppy_test
 *fill*         0x0000000000005b67 0x24700000001 00
 .text          0x0000000000005b68       0x49 cmos.o
                0x0000000000005b68                cmos_read_register
 *fill*         0x0000000000005bb1 0x4900000003 00
 .text          0x0000000000005bb4      0x3e2 dma.o
                0x0000000000005cc0                dma_start
                0x0000000000005c3a                dma_release_channel
                0x0000000000005bb4                dma_request_channel
                0x0000000000005f7d                dma_initialize
 *fill*         0x0000000000005f96 0x3e200000002 00
 .text          0x0000000000005f98     0x1051 tty.o
                0x0000000000006580                tty_clear_display
                0x000000000000686a                set_focus
                0x00000000000067e6                tty_read_key
                0x0000000000006931                tty_handler
                0x00000000000064f5                tty_get_attribute
                0x0000000000005fbc                active
                0x0000000000005f98                wait
                0x000000000000646c                tty_set_attribute
                0x00000000000067b9                tty_key_available
                0x0000000000005ffa                tty_open
                0x00000000000066c7                tty_gotoxy
                0x0000000000006def                write_string0
                0x0000000000006121                tty_close
                0x0000000000006e54                gotoxy0
                0x0000000000005fc6                set_LED
                0x0000000000006e69                tty_initialize
                0x0000000000006e10                set_attribute0
                0x0000000000006e40                get_attribute0
                0x0000000000006e01                clear_display0
                0x000000000000691a                tty_set_kernel_focus
                0x0000000000006215                tty_print
 *fill*         0x0000000000006fe9 0x105100000003 00
 .text          0x0000000000006fec      0x320 sys.o
                0x00000000000072c7                sys_initialize
                0x0000000000006fec                sys_handler
 .text          0x000000000000730c      0x722 process.o
                0x00000000000075e7                install_process
                0x00000000000077a4                clear_busy
                0x00000000000075d8                get_status
                0x00000000000077f0                kill_process
                0x000000000000730c                print_rq
                0x0000000000007340                screensaver
                0x0000000000007705                schedule
                0x000000000000769b                load_state
                0x00000000000076d5                get_current
                0x0000000000007684                save_state
                0x000000000000756f                need_screensaver
                0x0000000000007735                set_current
                0x00000000000075ac                processes_start
 *fill*         0x0000000000007a2e 0x72200000002 00
 .text          0x0000000000007a30      0x385 loader.o
                0x0000000000007a30                loader_initialize
 *fill*         0x0000000000007db5 0x38500000003 00
 .text          0x0000000000007db8       0xeb random.o
                0x0000000000007db8                uniform
                0x0000000000007e50                seed
 *fill*         0x0000000000007ea3 0xeb00000001 00
 .text          0x0000000000007ea4      0x5cd comms.o
                0x0000000000007f95                comms_send
                0x0000000000007ea4                comms_lookup_port
                0x00000000000083a2                comms_close_port
                0x0000000000008207                comms_reply
                0x0000000000007eee                comms_create_port
                0x0000000000008137                comms_receive
                0x0000000000008474                . = ALIGN (0x4)

.data           0x0000000000008480      0x9c8
 *(.data)
 .data          0x0000000000008480       0x22 trace.o
 *fill*         0x00000000000084a2 0x2200000002 00
 *fill*         0x00000000000084a4 0x220000001c 00
 .data          0x00000000000084c0       0x50 exceptions.o
 *fill*         0x0000000000008510 0x5000000010 00
 .data          0x0000000000008520      0x200 keyboard.o
 .data          0x0000000000008720      0x500 floppy.o
 .data          0x0000000000008c20       0x20 dma.o
 .data          0x0000000000008c40      0x200 tty.o
 .data          0x0000000000008e40        0x4 process.o
 .data          0x0000000000008e44        0x4 comms.o

.bss            0x0000000000008e60     0x3660
 *(.bss)
 .bss           0x0000000000008e60      0x2c0 boottable.o
 .bss           0x0000000000009120      0x420 trace.o
 .bss           0x0000000000009540     0x1004 i386.o
 *fill*         0x000000000000a544 0x10040000001c 00
 .bss           0x000000000000a560     0x1440 i8259.o
 .bss           0x000000000000b9a0        0x4 i8253.o
 .bss           0x000000000000b9a4       0x10 mem.o
 *fill*         0x000000000000b9b4 0x100000000c 00
 .bss           0x000000000000b9c0      0x411 keyboard.o
 *fill*         0x000000000000bdd1 0x41100000003 00
 *fill*         0x000000000000bdd4 0x4110000000c 00
 .bss           0x000000000000bde0      0x140 floppy.o
 .bss           0x000000000000bf20        0x8 dma.o
 *fill*         0x000000000000bf28 0x800000018 00
 .bss           0x000000000000bf40      0x4ac tty.o
 .bss           0x000000000000c3ec       0x14 process.o
 .bss           0x000000000000c400       0x80 comms.o
 COMMON         0x000000000000c480       0x14 trace.o
                                          0x0 (size before relaxing)
                0x000000000000c480                clear_display
                0x000000000000c484                get_attribute
                0x000000000000c488                gotoxy
                0x000000000000c48c                write_string
                0x000000000000c490                set_attribute
 COMMON         0x000000000000c494       0x18 memtest.o
                                          0x0 (size before relaxing)
                0x000000000000c494                test_ptr
                0x000000000000c498                lls_start
                0x000000000000c49c                t2
                0x000000000000c4a0                t1
                0x000000000000c4a4                temp_t2
                0x000000000000c4a8                temp_t1
 COMMON         0x000000000000c4ac       0x14 random.o
                                          0x0 (size before relaxing)
                0x000000000000c4ac                r
                0x000000000000c4b0                z
                0x000000000000c4b4                a
                0x000000000000c4b8                m
                0x000000000000c4bc                q

.rodata         0x000000000000c4c0     0x18e9
 *(.rodata)
 .rodata        0x000000000000c4c0       0x84 trace.o
 .rodata        0x000000000000c544       0x2e i386.o
 *fill*         0x000000000000c572 0x2e00000002 00
 .rodata        0x000000000000c574       0x69 i8259.o
 *fill*         0x000000000000c5dd 0x6900000003 00
 .rodata        0x000000000000c5e0      0x447 exceptions.o
 *fill*         0x000000000000ca27 0x44700000001 00
 .rodata        0x000000000000ca28       0x86 i8253.o
 *fill*         0x000000000000caae 0x8600000002 00
 .rodata        0x000000000000cab0       0x9d mem.o
 *fill*         0x000000000000cb4d 0x9d00000003 00
 .rodata        0x000000000000cb50      0x175 keyboard.o
 *fill*         0x000000000000ccc5 0x17500000003 00
 .rodata        0x000000000000ccc8      0x8c0 memtest.o
 .rodata        0x000000000000d588      0x1e5 floppy.o
 *fill*         0x000000000000d76d 0x1e500000003 00
 .rodata        0x000000000000d770      0x229 floppytest.o
 *fill*         0x000000000000d999 0x22900000003 00
 .rodata        0x000000000000d99c      0x220 tty.o
 .rodata        0x000000000000dbbc       0xa0 sys.o
 .rodata        0x000000000000dc5c       0x9d process.o
 .rodata        0x000000000000dcf9       0x6c loader.o
 .rodata        0x000000000000dd65       0x44 comms.o
                0x000000000000dda9                _heap_base = .
                0x0000000000001c37                _main_offset = (main - _main_call)

/DISCARD/
 *(.*)
OUTPUT(os314 binary)
